target datalayout = "e-m:e-p270:32:32-p271:32:32-p272:64:64-i64:64-i128:128-f80:128-n8:16:32:64-S128"
target triple = "x86_64-pc-linux-gnu"

@.str.19 = private unnamed_addr constant [22 x i8] c"FRESHCLAM_CLIENT_CERT\00", align 1
@.str.20 = private unnamed_addr constant [21 x i8] c"FRESHCLAM_CLIENT_KEY\00", align 1
@.str.21 = private unnamed_addr constant [169 x i8] c"The FRESHCLAM_CLIENT_CERT environment variable was set, but FRESHCLAM_CLIENT_KEY was not set. A client private key is also required if specifying a client certificate.\0A\00", align 1
@.str.22 = private unnamed_addr constant [28 x i8] c"FRESHCLAM_CLIENT_KEY_PASSWD\00", align 1
@.str.23 = private unnamed_addr constant [4 x i8] c"PEM\00", align 1
@.str.24 = private unnamed_addr constant [69 x i8] c"Failed to set client certificate type for client authentication: %s\0A\00", align 1
@.str.25 = private unnamed_addr constant [72 x i8] c"Failed to set client certificate to '%s' for client authentication: %s\0A\00", align 1
@.str.26 = private unnamed_addr constant [62 x i8] c"Failed to set private key type for client authentication: %s\0A\00", align 1
@.str.27 = private unnamed_addr constant [65 x i8] c"Failed to set private key to '%s' for client authentication: %s\0A\00", align 1
@.str.28 = private unnamed_addr constant [53 x i8] c"Failed to set the password for private key '%s': %s\0A\00", align 1

; Function Attrs: nounwind uwtable
define i32 @set_tls_client_certificate(ptr noundef %0) #0 {
  %2 = alloca ptr, align 8
  %3 = alloca i32, align 4
  %4 = alloca ptr, align 8
  %5 = alloca ptr, align 8
  %6 = alloca ptr, align 8
  %7 = alloca i32, align 4
  store ptr %0, ptr %2, align 8
  store i32 34, ptr %3, align 4
  store i32 0, ptr %7, align 4
  %8 = call ptr @getenv(ptr noundef @.str.19) #10
  store ptr %8, ptr %4, align 8
  %9 = load ptr, ptr %4, align 8
  %10 = icmp eq ptr %9, null
  br i1 %10, label %11, label %12

11:                                               ; preds = %1
  store i32 0, ptr %3, align 4
  br label %75

12:                                               ; preds = %1
  %13 = call ptr @getenv(ptr noundef @.str.20) #10
  store ptr %13, ptr %5, align 8
  %14 = load ptr, ptr %5, align 8
  %15 = icmp eq ptr %14, null
  br i1 %15, label %16, label %18

16:                                               ; preds = %12
  %17 = call i32 (i32, ptr, ...) @logg(i32 noundef 4, ptr noundef @.str.21)
  br label %75

18:                                               ; preds = %12
  %19 = call ptr @getenv(ptr noundef @.str.22) #10
  store ptr %19, ptr %6, align 8
  %20 = load ptr, ptr %2, align 8
  %21 = call i32 (ptr, i32, ...) @curl_easy_setopt(ptr noundef %20, i32 noundef 10086, ptr noundef @.str.23)
  store i32 %21, ptr %7, align 4
  %22 = load i32, ptr %7, align 4
  %23 = icmp ne i32 0, %22
  br i1 %23, label %24, label %28

24:                                               ; preds = %18
  %25 = load i32, ptr %7, align 4
  %26 = call ptr @curl_easy_strerror(i32 noundef %25)
  %27 = call i32 (i32, ptr, ...) @logg(i32 noundef 4, ptr noundef @.str.24, ptr noundef %26)
  br label %75

28:                                               ; preds = %18
  %29 = load ptr, ptr %2, align 8
  %30 = load ptr, ptr %4, align 8
  %31 = call i32 (ptr, i32, ...) @curl_easy_setopt(ptr noundef %29, i32 noundef 10025, ptr noundef %30)
  store i32 %31, ptr %7, align 4
  %32 = load i32, ptr %7, align 4
  %33 = icmp ne i32 0, %32
  br i1 %33, label %34, label %39

34:                                               ; preds = %28
  %35 = load ptr, ptr %4, align 8
  %36 = load i32, ptr %7, align 4
  %37 = call ptr @curl_easy_strerror(i32 noundef %36)
  %38 = call i32 (i32, ptr, ...) @logg(i32 noundef 4, ptr noundef @.str.25, ptr noundef %35, ptr noundef %37)
  br label %75

39:                                               ; preds = %28
  %40 = load ptr, ptr %2, align 8
  %41 = call i32 (ptr, i32, ...) @curl_easy_setopt(ptr noundef %40, i32 noundef 10088, ptr noundef @.str.23)
  store i32 %41, ptr %7, align 4
  %42 = load i32, ptr %7, align 4
  %43 = icmp ne i32 0, %42
  br i1 %43, label %44, label %48

44:                                               ; preds = %39
  %45 = load i32, ptr %7, align 4
  %46 = call ptr @curl_easy_strerror(i32 noundef %45)
  %47 = call i32 (i32, ptr, ...) @logg(i32 noundef 4, ptr noundef @.str.26, ptr noundef %46)
  br label %75

48:                                               ; preds = %39
  %49 = load ptr, ptr %2, align 8
  %50 = load ptr, ptr %5, align 8
  %51 = call i32 (ptr, i32, ...) @curl_easy_setopt(ptr noundef %49, i32 noundef 10087, ptr noundef %50)
  store i32 %51, ptr %7, align 4
  %52 = load i32, ptr %7, align 4
  %53 = icmp ne i32 0, %52
  br i1 %53, label %54, label %59

54:                                               ; preds = %48
  %55 = load ptr, ptr %5, align 8
  %56 = load i32, ptr %7, align 4
  %57 = call ptr @curl_easy_strerror(i32 noundef %56)
  %58 = call i32 (i32, ptr, ...) @logg(i32 noundef 4, ptr noundef @.str.27, ptr noundef %55, ptr noundef %57)
  br label %75

59:                                               ; preds = %48
  %60 = load ptr, ptr %6, align 8
  %61 = icmp ne ptr %60, null
  br i1 %61, label %62, label %74

62:                                               ; preds = %59
  %63 = load ptr, ptr %2, align 8
  %64 = load ptr, ptr %6, align 8
  %65 = call i32 (ptr, i32, ...) @curl_easy_setopt(ptr noundef %63, i32 noundef 10026, ptr noundef %64)
  store i32 %65, ptr %7, align 4
  %66 = load i32, ptr %7, align 4
  %67 = icmp ne i32 0, %66
  br i1 %67, label %68, label %73

68:                                               ; preds = %62
  %69 = load ptr, ptr %5, align 8
  %70 = load i32, ptr %7, align 4
  %71 = call ptr @curl_easy_strerror(i32 noundef %70)
  %72 = call i32 (i32, ptr, ...) @logg(i32 noundef 4, ptr noundef @.str.28, ptr noundef %69, ptr noundef %71)
  br label %75

73:                                               ; preds = %62
  br label %74

74:                                               ; preds = %73, %59
  store i32 0, ptr %3, align 4
  br label %75

75:                                               ; preds = %74, %68, %54, %44, %34, %24, %16, %11
  %76 = load i32, ptr %3, align 4
  ret i32 %76
}