; Function Attrs: nounwind uwtable
define noundef i32 @set_tls_client_certificate(ptr noundef %0) local_unnamed_addr #1 {
  %2 = tail call ptr @getenv(ptr noundef nonnull @.str.19) #15
  %3 = icmp eq ptr %2, null
  br i1 %3, label %36, label %4

4:                                                ; preds = %1
  %5 = tail call ptr @getenv(ptr noundef nonnull @.str.20) #15
  %6 = icmp eq ptr %5, null
  br i1 %6, label %7, label %9

7:                                                ; preds = %4
  %8 = tail call i32 (i32, ptr, ...) @logg(i32 noundef 4, ptr noundef nonnull @.str.21) #15
  br label %36

9:                                                ; preds = %4
  %10 = tail call ptr @getenv(ptr noundef nonnull @.str.22) #15
  %11 = tail call i32 (ptr, i32, ...) @curl_easy_setopt(ptr noundef %0, i32 noundef 10086, ptr noundef nonnull @.str.23) #15
  %.not = icmp eq i32 %11, 0
  br i1 %.not, label %15, label %12

12:                                               ; preds = %9
  %13 = tail call ptr @curl_easy_strerror(i32 noundef %11) #15
  %14 = tail call i32 (i32, ptr, ...) @logg(i32 noundef 4, ptr noundef nonnull @.str.24, ptr noundef %13) #15
  br label %36

15:                                               ; preds = %9
  %16 = tail call i32 (ptr, i32, ...) @curl_easy_setopt(ptr noundef %0, i32 noundef 10025, ptr noundef nonnull %2) #15
  %.not32 = icmp eq i32 %16, 0
  br i1 %.not32, label %20, label %17

17:                                               ; preds = %15
  %18 = tail call ptr @curl_easy_strerror(i32 noundef %16) #15
  %19 = tail call i32 (i32, ptr, ...) @logg(i32 noundef 4, ptr noundef nonnull @.str.25, ptr noundef nonnull %2, ptr noundef %18) #15
  br label %36

20:                                               ; preds = %15
  %21 = tail call i32 (ptr, i32, ...) @curl_easy_setopt(ptr noundef %0, i32 noundef 10088, ptr noundef nonnull @.str.23) #15
  %.not33 = icmp eq i32 %21, 0
  br i1 %.not33, label %25, label %22

22:                                               ; preds = %20
  %23 = tail call ptr @curl_easy_strerror(i32 noundef %21) #15
  %24 = tail call i32 (i32, ptr, ...) @logg(i32 noundef 4, ptr noundef nonnull @.str.26, ptr noundef %23) #15
  br label %36

25:                                               ; preds = %20
  %26 = tail call i32 (ptr, i32, ...) @curl_easy_setopt(ptr noundef %0, i32 noundef 10087, ptr noundef nonnull %5) #15
  %.not34 = icmp eq i32 %26, 0
  br i1 %.not34, label %30, label %27

27:                                               ; preds = %25
  %28 = tail call ptr @curl_easy_strerror(i32 noundef %26) #15
  %29 = tail call i32 (i32, ptr, ...) @logg(i32 noundef 4, ptr noundef nonnull @.str.27, ptr noundef nonnull %5, ptr noundef %28) #15
  br label %36

30:                                               ; preds = %25
  %.not35 = icmp eq ptr %10, null
  br i1 %.not35, label %36, label %31

31:                                               ; preds = %30
  %32 = tail call i32 (ptr, i32, ...) @curl_easy_setopt(ptr noundef %0, i32 noundef 10026, ptr noundef nonnull %10) #15
  %.not36 = icmp eq i32 %32, 0
  br i1 %.not36, label %36, label %33

33:                                               ; preds = %31
  %34 = tail call ptr @curl_easy_strerror(i32 noundef %32) #15
  %35 = tail call i32 (i32, ptr, ...) @logg(i32 noundef 4, ptr noundef nonnull @.str.28, ptr noundef nonnull %5, ptr noundef %34) #15
  br label %36

36:                                               ; preds = %30, %31, %1, %33, %27, %22, %17, %12, %7
  %.0 = phi i32 [ 34, %7 ], [ 34, %12 ], [ 34, %17 ], [ 34, %22 ], [ 34, %27 ], [ 34, %33 ], [ 0, %1 ], [ 0, %31 ], [ 0, %30 ]
  ret i32 %.0
}